Archive member included because of file (symbol)

c:/program files (x86)/gnu tools arm embedded/4.9 2015q3/bin/../lib/gcc/arm-none-eabi/4.9.3/armv6-m\libgcc.a(_thumb1_case_uqi.o)
                              ..\obj\BMP180_api.o (__gnu_thumb1_case_uqi)
c:/program files (x86)/gnu tools arm embedded/4.9 2015q3/bin/../lib/gcc/arm-none-eabi/4.9.3/armv6-m\libgcc.a(_udivsi3.o)
                              ..\obj\BMP180_api.o (__aeabi_uidiv)
c:/program files (x86)/gnu tools arm embedded/4.9 2015q3/bin/../lib/gcc/arm-none-eabi/4.9.3/armv6-m\libgcc.a(_divsi3.o)
                              ..\obj\BMP180_api.o (__aeabi_idiv)
c:/program files (x86)/gnu tools arm embedded/4.9 2015q3/bin/../lib/gcc/arm-none-eabi/4.9.3/armv6-m\libgcc.a(_dvmd_tls.o)
                              c:/program files (x86)/gnu tools arm embedded/4.9 2015q3/bin/../lib/gcc/arm-none-eabi/4.9.3/armv6-m\libgcc.a(_udivsi3.o) (__aeabi_idiv0)
c:/program files (x86)/gnu tools arm embedded/4.9 2015q3/bin/../lib/gcc/arm-none-eabi/4.9.3/armv6-m\libgcc.a(_floatundidf.o)
                              ..\obj\PressureSensor.o (__aeabi_ul2d)
c:/program files (x86)/gnu tools arm embedded/4.9 2015q3/bin/../lib/gcc/arm-none-eabi/4.9.3/armv6-m\libgcc.a(divsf3.o)
                              ..\obj\PressureSensor.o (__aeabi_fdiv)
c:/program files (x86)/gnu tools arm embedded/4.9 2015q3/bin/../lib/gcc/arm-none-eabi/4.9.3/armv6-m\libgcc.a(mulsf3.o)
                              ..\obj\PressureSensor.o (__aeabi_fmul)
c:/program files (x86)/gnu tools arm embedded/4.9 2015q3/bin/../lib/gcc/arm-none-eabi/4.9.3/armv6-m\libgcc.a(fixsfsi.o)
                              ..\obj\PressureSensor.o (__aeabi_f2iz)
c:/program files (x86)/gnu tools arm embedded/4.9 2015q3/bin/../lib/gcc/arm-none-eabi/4.9.3/armv6-m\libgcc.a(floatunsisf.o)
                              ..\obj\PressureSensor.o (__aeabi_ui2f)
c:/program files (x86)/gnu tools arm embedded/4.9 2015q3/bin/../lib/gcc/arm-none-eabi/4.9.3/armv6-m\libgcc.a(adddf3.o)
                              c:/program files (x86)/gnu tools arm embedded/4.9 2015q3/bin/../lib/gcc/arm-none-eabi/4.9.3/armv6-m\libgcc.a(_floatundidf.o) (__aeabi_dadd)
c:/program files (x86)/gnu tools arm embedded/4.9 2015q3/bin/../lib/gcc/arm-none-eabi/4.9.3/armv6-m\libgcc.a(divdf3.o)
                              ..\obj\PressureSensor.o (__aeabi_ddiv)
c:/program files (x86)/gnu tools arm embedded/4.9 2015q3/bin/../lib/gcc/arm-none-eabi/4.9.3/armv6-m\libgcc.a(muldf3.o)
                              ..\obj\PressureSensor.o (__aeabi_dmul)
c:/program files (x86)/gnu tools arm embedded/4.9 2015q3/bin/../lib/gcc/arm-none-eabi/4.9.3/armv6-m\libgcc.a(subdf3.o)
                              ..\obj\PressureSensor.o (__aeabi_dsub)
c:/program files (x86)/gnu tools arm embedded/4.9 2015q3/bin/../lib/gcc/arm-none-eabi/4.9.3/armv6-m\libgcc.a(floatunsidf.o)
                              ..\obj\PressureSensor.o (__aeabi_ui2d)
c:/program files (x86)/gnu tools arm embedded/4.9 2015q3/bin/../lib/gcc/arm-none-eabi/4.9.3/armv6-m\libgcc.a(extendsfdf2.o)
                              ..\obj\PressureSensor.o (__aeabi_f2d)
c:/program files (x86)/gnu tools arm embedded/4.9 2015q3/bin/../lib/gcc/arm-none-eabi/4.9.3/armv6-m\libgcc.a(truncdfsf2.o)
                              ..\obj\PressureSensor.o (__aeabi_d2f)
c:/program files (x86)/gnu tools arm embedded/4.9 2015q3/bin/../lib/gcc/arm-none-eabi/4.9.3/armv6-m\libgcc.a(_clzsi2.o)
                              c:/program files (x86)/gnu tools arm embedded/4.9 2015q3/bin/../lib/gcc/arm-none-eabi/4.9.3/armv6-m\libgcc.a(divsf3.o) (__clzsi2)

Allocating common symbols
Common symbol       size              file

VELOCITYFAST        0x12c             ..\obj\main.o
BMP180_CTRLREGS     0x5               ..\obj\BMP180_api.o
VELOCITYSLOW        0x12c             ..\obj\main.o
VELOCITYVERYFAST    0x12c             ..\obj\main.o
intbuzzenable       0x1               ..\obj\main.o
VELOCITYVERYSLOW    0x12c             ..\obj\main.o
VELOCITYNORMAL      0x12c             ..\obj\main.o
intbuzzthreshold    0x2               ..\obj\main.o
pressens_pressarray
                    0x230             ..\obj\main.o
BMP180_CALREGS      0x1c              ..\obj\BMP180_api.o
intbuzzcounter      0x4               ..\obj\main.o
adcconvcounter      0x4               ..\obj\PowerLed.o
doesitsleep         0x1               ..\obj\BMP180_api.o
intcounter          0x4               ..\obj\BMP180_api.o

Discarded input sections

 .text          0x00000000        0x0 ..\obj\BMP180_api.o
 .data          0x00000000        0x0 ..\obj\BMP180_api.o
 .bss           0x00000000        0x0 ..\obj\BMP180_api.o
 .text          0x00000000        0x0 ..\obj\PowerLed.o
 .data          0x00000000        0x0 ..\obj\PowerLed.o
 .text.PowerLed_ADCTimerInitandStart
                0x00000000       0x54 ..\obj\PowerLed.o
 .text.PowerLed_IsVoltageOK
                0x00000000        0xc ..\obj\PowerLed.o
 .text          0x00000000        0x0 ..\obj\stm32f0xx_rcc.o
 .bss           0x00000000        0x0 ..\obj\stm32f0xx_rcc.o
 .text.RCC_DeInit
                0x00000000       0x60 ..\obj\stm32f0xx_rcc.o
 .text.RCC_HSEConfig
                0x00000000       0x10 ..\obj\stm32f0xx_rcc.o
 .text.RCC_AdjustHSICalibrationValue
                0x00000000       0x14 ..\obj\stm32f0xx_rcc.o
 .text.RCC_HSICmd
                0x00000000       0x18 ..\obj\stm32f0xx_rcc.o
 .text.RCC_AdjustHSI14CalibrationValue
                0x00000000       0x14 ..\obj\stm32f0xx_rcc.o
 .text.RCC_HSI14Cmd
                0x00000000       0x18 ..\obj\stm32f0xx_rcc.o
 .text.RCC_HSI14ADCRequestCmd
                0x00000000       0x18 ..\obj\stm32f0xx_rcc.o
 .text.RCC_LSEConfig
                0x00000000       0x20 ..\obj\stm32f0xx_rcc.o
 .text.RCC_LSEDriveConfig
                0x00000000       0x18 ..\obj\stm32f0xx_rcc.o
 .text.RCC_LSICmd
                0x00000000       0x18 ..\obj\stm32f0xx_rcc.o
 .text.RCC_PLLConfig
                0x00000000       0x20 ..\obj\stm32f0xx_rcc.o
 .text.RCC_PLLCmd
                0x00000000       0x24 ..\obj\stm32f0xx_rcc.o
 .text.RCC_PREDIV1Config
                0x00000000       0x14 ..\obj\stm32f0xx_rcc.o
 .text.RCC_ClockSecuritySystemCmd
                0x00000000       0x24 ..\obj\stm32f0xx_rcc.o
 .text.RCC_MCOConfig
                0x00000000       0x1c ..\obj\stm32f0xx_rcc.o
 .text.RCC_SYSCLKConfig
                0x00000000       0x14 ..\obj\stm32f0xx_rcc.o
 .text.RCC_GetSYSCLKSource
                0x00000000       0x10 ..\obj\stm32f0xx_rcc.o
 .text.RCC_PCLKConfig
                0x00000000       0x18 ..\obj\stm32f0xx_rcc.o
 .text.RCC_ADCCLKConfig
                0x00000000       0x30 ..\obj\stm32f0xx_rcc.o
 .text.RCC_CECCLKConfig
                0x00000000       0x18 ..\obj\stm32f0xx_rcc.o
 .text.RCC_I2CCLKConfig
                0x00000000       0x18 ..\obj\stm32f0xx_rcc.o
 .text.RCC_USARTCLKConfig
                0x00000000       0x18 ..\obj\stm32f0xx_rcc.o
 .text.RCC_RTCCLKConfig
                0x00000000       0x10 ..\obj\stm32f0xx_rcc.o
 .text.RCC_RTCCLKCmd
                0x00000000       0x24 ..\obj\stm32f0xx_rcc.o
 .text.RCC_BackupResetCmd
                0x00000000       0x24 ..\obj\stm32f0xx_rcc.o
 .text.RCC_AHBPeriphResetCmd
                0x00000000       0x18 ..\obj\stm32f0xx_rcc.o
 .text.RCC_APB2PeriphResetCmd
                0x00000000       0x18 ..\obj\stm32f0xx_rcc.o
 .text.RCC_APB1PeriphResetCmd
                0x00000000       0x18 ..\obj\stm32f0xx_rcc.o
 .text.RCC_ITConfig
                0x00000000       0x18 ..\obj\stm32f0xx_rcc.o
 .text.RCC_GetFlagStatus
                0x00000000       0x2c ..\obj\stm32f0xx_rcc.o
 .text.RCC_WaitForHSEStartUp
                0x00000000       0x2e ..\obj\stm32f0xx_rcc.o
 .text.RCC_ClearFlag
                0x00000000       0x14 ..\obj\stm32f0xx_rcc.o
 .text.RCC_GetITStatus
                0x00000000       0x14 ..\obj\stm32f0xx_rcc.o
 .text.RCC_ClearITPendingBit
                0x00000000        0xc ..\obj\stm32f0xx_rcc.o
 .text          0x00000000        0x0 ..\obj\stm32f0xx_adc.o
 .data          0x00000000        0x0 ..\obj\stm32f0xx_adc.o
 .bss           0x00000000        0x0 ..\obj\stm32f0xx_adc.o
 .text.ADC_DeInit
                0x00000000       0x24 ..\obj\stm32f0xx_adc.o
 .text.ADC_JitterCmd
                0x00000000       0x12 ..\obj\stm32f0xx_adc.o
 .text.ADC_WaitModeCmd
                0x00000000       0x1c ..\obj\stm32f0xx_adc.o
 .text.ADC_AnalogWatchdogCmd
                0x00000000       0x1c ..\obj\stm32f0xx_adc.o
 .text.ADC_AnalogWatchdogThresholdsConfig
                0x00000000        0x8 ..\obj\stm32f0xx_adc.o
 .text.ADC_AnalogWatchdogSingleChannelConfig
                0x00000000       0x10 ..\obj\stm32f0xx_adc.o
 .text.ADC_AnalogWatchdogSingleChannelCmd
                0x00000000       0x1c ..\obj\stm32f0xx_adc.o
 .text.ADC_TempSensorCmd
                0x00000000       0x24 ..\obj\stm32f0xx_adc.o
 .text.ADC_VrefintCmd
                0x00000000       0x24 ..\obj\stm32f0xx_adc.o
 .text.ADC_VbatCmd
                0x00000000       0x24 ..\obj\stm32f0xx_adc.o
 .text.ADC_ContinuousModeCmd
                0x00000000       0x1c ..\obj\stm32f0xx_adc.o
 .text.ADC_DiscModeCmd
                0x00000000       0x1c ..\obj\stm32f0xx_adc.o
 .text.ADC_OverrunModeCmd
                0x00000000       0x1c ..\obj\stm32f0xx_adc.o
 .text.ADC_StopOfConversion
                0x00000000        0xa ..\obj\stm32f0xx_adc.o
 .text.ADC_DMACmd
                0x00000000       0x12 ..\obj\stm32f0xx_adc.o
 .text.ADC_DMARequestModeConfig
                0x00000000       0x10 ..\obj\stm32f0xx_adc.o
 .text.ADC_ITConfig
                0x00000000       0x12 ..\obj\stm32f0xx_adc.o
 .text.ADC_ClearFlag
                0x00000000        0x4 ..\obj\stm32f0xx_adc.o
 .text.ADC_GetITStatus
                0x00000000       0x14 ..\obj\stm32f0xx_adc.o
 .text.ADC_ClearITPendingBit
                0x00000000        0x4 ..\obj\stm32f0xx_adc.o
 .text          0x00000000        0x0 ..\obj\I2C_extension.o
 .data          0x00000000        0x0 ..\obj\I2C_extension.o
 .bss           0x00000000        0x0 ..\obj\I2C_extension.o
 .text          0x00000000        0x0 ..\obj\main.o
 .data          0x00000000        0x0 ..\obj\main.o
 .bss           0x00000000        0x0 ..\obj\main.o
 .text          0x00000000       0x14 ..\obj\startup_stm32f0xx.o
 .data          0x00000000        0x0 ..\obj\startup_stm32f0xx.o
 .bss           0x00000000        0x0 ..\obj\startup_stm32f0xx.o
 .text          0x00000000        0x0 ..\obj\ShutDown.o
 .text          0x00000000        0x0 ..\obj\stm32f0xx_i2c.o
 .data          0x00000000        0x0 ..\obj\stm32f0xx_i2c.o
 .bss           0x00000000        0x0 ..\obj\stm32f0xx_i2c.o
 .text.I2C_DeInit
                0x00000000       0x34 ..\obj\stm32f0xx_i2c.o
 .text.I2C_SoftwareResetCmd
                0x00000000       0x12 ..\obj\stm32f0xx_i2c.o
 .text.I2C_ITConfig
                0x00000000       0x12 ..\obj\stm32f0xx_i2c.o
 .text.I2C_StretchClockCmd
                0x00000000       0x1c ..\obj\stm32f0xx_i2c.o
 .text.I2C_StopModeCmd
                0x00000000       0x1c ..\obj\stm32f0xx_i2c.o
 .text.I2C_DualAddressCmd
                0x00000000       0x1c ..\obj\stm32f0xx_i2c.o
 .text.I2C_OwnAddress2Config
                0x00000000       0x28 ..\obj\stm32f0xx_i2c.o
 .text.I2C_GeneralCallCmd
                0x00000000       0x1c ..\obj\stm32f0xx_i2c.o
 .text.I2C_SlaveByteControlCmd
                0x00000000       0x1c ..\obj\stm32f0xx_i2c.o
 .text.I2C_SlaveAddressConfig
                0x00000000       0x10 ..\obj\stm32f0xx_i2c.o
 .text.I2C_10BitAddressingModeCmd
                0x00000000       0x1c ..\obj\stm32f0xx_i2c.o
 .text.I2C_AutoEndCmd
                0x00000000       0x1c ..\obj\stm32f0xx_i2c.o
 .text.I2C_ReloadCmd
                0x00000000       0x1c ..\obj\stm32f0xx_i2c.o
 .text.I2C_NumberOfBytesConfig
                0x00000000       0x14 ..\obj\stm32f0xx_i2c.o
 .text.I2C_MasterRequestConfig
                0x00000000       0x1c ..\obj\stm32f0xx_i2c.o
 .text.I2C_GenerateSTART
                0x00000000       0x1c ..\obj\stm32f0xx_i2c.o
 .text.I2C_GenerateSTOP
                0x00000000       0x1c ..\obj\stm32f0xx_i2c.o
 .text.I2C_10BitAddressHeaderCmd
                0x00000000       0x1c ..\obj\stm32f0xx_i2c.o
 .text.I2C_AcknowledgeConfig
                0x00000000       0x1c ..\obj\stm32f0xx_i2c.o
 .text.I2C_GetAddressMatched
                0x00000000        0xc ..\obj\stm32f0xx_i2c.o
 .text.I2C_GetTransferDirection
                0x00000000        0xa ..\obj\stm32f0xx_i2c.o
 .text.I2C_SMBusAlertCmd
                0x00000000       0x1c ..\obj\stm32f0xx_i2c.o
 .text.I2C_ClockTimeoutCmd
                0x00000000       0x1c ..\obj\stm32f0xx_i2c.o
 .text.I2C_ExtendedClockTimeoutCmd
                0x00000000       0x16 ..\obj\stm32f0xx_i2c.o
 .text.I2C_IdleClockTimeoutCmd
                0x00000000       0x1c ..\obj\stm32f0xx_i2c.o
 .text.I2C_TimeoutAConfig
                0x00000000       0x10 ..\obj\stm32f0xx_i2c.o
 .text.I2C_TimeoutBConfig
                0x00000000       0x1c ..\obj\stm32f0xx_i2c.o
 .text.I2C_CalculatePEC
                0x00000000       0x1c ..\obj\stm32f0xx_i2c.o
 .text.I2C_PECRequestCmd
                0x00000000       0x1c ..\obj\stm32f0xx_i2c.o
 .text.I2C_GetPEC
                0x00000000        0x6 ..\obj\stm32f0xx_i2c.o
 .text.I2C_ReadRegister
                0x00000000       0x16 ..\obj\stm32f0xx_i2c.o
 .text.I2C_DMACmd
                0x00000000       0x12 ..\obj\stm32f0xx_i2c.o
 .text.I2C_GetITStatus
                0x00000000       0x30 ..\obj\stm32f0xx_i2c.o
 .text.I2C_ClearITPendingBit
                0x00000000        0x4 ..\obj\stm32f0xx_i2c.o
 .text          0x00000000        0x0 ..\obj\system_stm32f0xx_temp.o
 .data          0x00000000       0x14 ..\obj\system_stm32f0xx_temp.o
 .bss           0x00000000        0x0 ..\obj\system_stm32f0xx_temp.o
 .text.SystemCoreClockUpdate1
                0x00000000       0x64 ..\obj\system_stm32f0xx_temp.o
 .text          0x00000000        0x0 ..\obj\stm32f0xx_gpio.o
 .data          0x00000000        0x0 ..\obj\stm32f0xx_gpio.o
 .bss           0x00000000        0x0 ..\obj\stm32f0xx_gpio.o
 .text.GPIO_DeInit
                0x00000000       0x88 ..\obj\stm32f0xx_gpio.o
 .text.GPIO_PinLockConfig
                0x00000000       0x24 ..\obj\stm32f0xx_gpio.o
 .text.GPIO_ReadInputData
                0x00000000        0x6 ..\obj\stm32f0xx_gpio.o
 .text.GPIO_ReadOutputDataBit
                0x00000000        0xc ..\obj\stm32f0xx_gpio.o
 .text.GPIO_ReadOutputData
                0x00000000        0x6 ..\obj\stm32f0xx_gpio.o
 .text.GPIO_WriteBit
                0x00000000        0xc ..\obj\stm32f0xx_gpio.o
 .text.GPIO_Write
                0x00000000        0x4 ..\obj\stm32f0xx_gpio.o
 .text          0x00000000        0x0 ..\obj\stm32f0xx_tim.o
 .data          0x00000000        0x0 ..\obj\stm32f0xx_tim.o
 .bss           0x00000000        0x0 ..\obj\stm32f0xx_tim.o
 .text.TI1_Config
                0x00000000       0x2a ..\obj\stm32f0xx_tim.o
 .text.TI2_Config
                0x00000000       0x38 ..\obj\stm32f0xx_tim.o
 .text.TIM_DeInit
                0x00000000       0xd0 ..\obj\stm32f0xx_tim.o
 .text.TIM_PrescalerConfig
                0x00000000        0x6 ..\obj\stm32f0xx_tim.o
 .text.TIM_CounterModeConfig
                0x00000000        0xc ..\obj\stm32f0xx_tim.o
 .text.TIM_SetCounter
                0x00000000        0x4 ..\obj\stm32f0xx_tim.o
 .text.TIM_SetAutoreload
                0x00000000        0x4 ..\obj\stm32f0xx_tim.o
 .text.TIM_GetCounter
                0x00000000        0x4 ..\obj\stm32f0xx_tim.o
 .text.TIM_GetPrescaler
                0x00000000        0x6 ..\obj\stm32f0xx_tim.o
 .text.TIM_UpdateDisableConfig
                0x00000000       0x12 ..\obj\stm32f0xx_tim.o
 .text.TIM_UpdateRequestConfig
                0x00000000       0x12 ..\obj\stm32f0xx_tim.o
 .text.TIM_ARRPreloadConfig
                0x00000000       0x12 ..\obj\stm32f0xx_tim.o
 .text.TIM_SelectOnePulseMode
                0x00000000       0x10 ..\obj\stm32f0xx_tim.o
 .text.TIM_SetClockDivision
                0x00000000       0x14 ..\obj\stm32f0xx_tim.o
 .text.TIM_BDTRConfig
                0x00000000       0x20 ..\obj\stm32f0xx_tim.o
 .text.TIM_BDTRStructInit
                0x00000000       0x12 ..\obj\stm32f0xx_tim.o
 .text.TIM_CtrlPWMOutputs
                0x00000000       0x1a ..\obj\stm32f0xx_tim.o
 .text.TIM_OC3Init
                0x00000000       0x84 ..\obj\stm32f0xx_tim.o
 .text.TIM_OC4Init
                0x00000000       0x64 ..\obj\stm32f0xx_tim.o
 .text.TIM_SelectOCxM
                0x00000000       0x4c ..\obj\stm32f0xx_tim.o
 .text.TIM_SetCompare1
                0x00000000        0x4 ..\obj\stm32f0xx_tim.o
 .text.TIM_SetCompare2
                0x00000000        0x4 ..\obj\stm32f0xx_tim.o
 .text.TIM_SetCompare3
                0x00000000        0x4 ..\obj\stm32f0xx_tim.o
 .text.TIM_SetCompare4
                0x00000000        0x4 ..\obj\stm32f0xx_tim.o
 .text.TIM_ForcedOC1Config
                0x00000000        0xc ..\obj\stm32f0xx_tim.o
 .text.TIM_ForcedOC2Config
                0x00000000       0x14 ..\obj\stm32f0xx_tim.o
 .text.TIM_ForcedOC3Config
                0x00000000        0xc ..\obj\stm32f0xx_tim.o
 .text.TIM_ForcedOC4Config
                0x00000000       0x14 ..\obj\stm32f0xx_tim.o
 .text.TIM_CCPreloadControl
                0x00000000       0x12 ..\obj\stm32f0xx_tim.o
 .text.TIM_OC3PreloadConfig
                0x00000000        0xc ..\obj\stm32f0xx_tim.o
 .text.TIM_OC4PreloadConfig
                0x00000000       0x14 ..\obj\stm32f0xx_tim.o
 .text.TIM_OC1FastConfig
                0x00000000        0xc ..\obj\stm32f0xx_tim.o
 .text.TIM_OC2FastConfig
                0x00000000       0x14 ..\obj\stm32f0xx_tim.o
 .text.TIM_OC3FastConfig
                0x00000000        0xc ..\obj\stm32f0xx_tim.o
 .text.TIM_OC4FastConfig
                0x00000000       0x14 ..\obj\stm32f0xx_tim.o
 .text.TIM_ClearOC1Ref
                0x00000000        0xc ..\obj\stm32f0xx_tim.o
 .text.TIM_ClearOC2Ref
                0x00000000       0x10 ..\obj\stm32f0xx_tim.o
 .text.TIM_ClearOC3Ref
                0x00000000        0xc ..\obj\stm32f0xx_tim.o
 .text.TIM_ClearOC4Ref
                0x00000000       0x10 ..\obj\stm32f0xx_tim.o
 .text.TIM_OC1PolarityConfig
                0x00000000        0xc ..\obj\stm32f0xx_tim.o
 .text.TIM_OC1NPolarityConfig
                0x00000000        0xc ..\obj\stm32f0xx_tim.o
 .text.TIM_OC2PolarityConfig
                0x00000000       0x10 ..\obj\stm32f0xx_tim.o
 .text.TIM_OC2NPolarityConfig
                0x00000000       0x10 ..\obj\stm32f0xx_tim.o
 .text.TIM_OC3PolarityConfig
                0x00000000       0x14 ..\obj\stm32f0xx_tim.o
 .text.TIM_OC3NPolarityConfig
                0x00000000       0x14 ..\obj\stm32f0xx_tim.o
 .text.TIM_OC4PolarityConfig
                0x00000000       0x14 ..\obj\stm32f0xx_tim.o
 .text.TIM_SelectOCREFClear
                0x00000000       0x10 ..\obj\stm32f0xx_tim.o
 .text.TIM_CCxCmd
                0x00000000       0x18 ..\obj\stm32f0xx_tim.o
 .text.TIM_CCxNCmd
                0x00000000       0x18 ..\obj\stm32f0xx_tim.o
 .text.TIM_SelectCOM
                0x00000000       0x12 ..\obj\stm32f0xx_tim.o
 .text.TIM_ICStructInit
                0x00000000       0x10 ..\obj\stm32f0xx_tim.o
 .text.TIM_GetCapture1
                0x00000000        0x4 ..\obj\stm32f0xx_tim.o
 .text.TIM_GetCapture2
                0x00000000        0x4 ..\obj\stm32f0xx_tim.o
 .text.TIM_GetCapture3
                0x00000000        0x4 ..\obj\stm32f0xx_tim.o
 .text.TIM_GetCapture4
                0x00000000        0x4 ..\obj\stm32f0xx_tim.o
 .text.TIM_SetIC1Prescaler
                0x00000000       0x10 ..\obj\stm32f0xx_tim.o
 .text.TIM_SetIC2Prescaler
                0x00000000       0x18 ..\obj\stm32f0xx_tim.o
 .text.TIM_PWMIConfig
                0x00000000       0x68 ..\obj\stm32f0xx_tim.o
 .text.TIM_SetIC3Prescaler
                0x00000000       0x10 ..\obj\stm32f0xx_tim.o
 .text.TIM_SetIC4Prescaler
                0x00000000       0x18 ..\obj\stm32f0xx_tim.o
 .text.TIM_ICInit
                0x00000000       0xbc ..\obj\stm32f0xx_tim.o
 .text.TIM_GenerateEvent
                0x00000000        0x4 ..\obj\stm32f0xx_tim.o
 .text.TIM_GetFlagStatus
                0x00000000        0xc ..\obj\stm32f0xx_tim.o
 .text.TIM_ClearFlag
                0x00000000        0x8 ..\obj\stm32f0xx_tim.o
 .text.TIM_DMAConfig
                0x00000000        0x8 ..\obj\stm32f0xx_tim.o
 .text.TIM_DMACmd
                0x00000000       0x12 ..\obj\stm32f0xx_tim.o
 .text.TIM_SelectCCDMA
                0x00000000       0x12 ..\obj\stm32f0xx_tim.o
 .text.TIM_InternalClockConfig
                0x00000000        0xa ..\obj\stm32f0xx_tim.o
 .text.TIM_ITRxExternalClockConfig
                0x00000000       0x14 ..\obj\stm32f0xx_tim.o
 .text.TIM_TIxExternalClockConfig
                0x00000000       0x2c ..\obj\stm32f0xx_tim.o
 .text.TIM_SelectInputTrigger
                0x00000000        0xc ..\obj\stm32f0xx_tim.o
 .text.TIM_SelectOutputTrigger
                0x00000000       0x10 ..\obj\stm32f0xx_tim.o
 .text.TIM_SelectSlaveMode
                0x00000000       0x10 ..\obj\stm32f0xx_tim.o
 .text.TIM_SelectMasterSlaveMode
                0x00000000       0x10 ..\obj\stm32f0xx_tim.o
 .text.TIM_ETRConfig
                0x00000000       0x14 ..\obj\stm32f0xx_tim.o
 .text.TIM_ETRClockMode1Config
                0x00000000       0x14 ..\obj\stm32f0xx_tim.o
 .text.TIM_ETRClockMode2Config
                0x00000000       0x14 ..\obj\stm32f0xx_tim.o
 .text.TIM_EncoderInterfaceConfig
                0x00000000       0x30 ..\obj\stm32f0xx_tim.o
 .text.TIM_SelectHallSensor
                0x00000000       0x12 ..\obj\stm32f0xx_tim.o
 .text.TIM_RemapConfig
                0x00000000        0x6 ..\obj\stm32f0xx_tim.o
 .text          0x00000000        0x0 ..\obj\Vario_CC_board.o
 .data          0x00000000        0x0 ..\obj\Vario_CC_board.o
 .bss           0x00000000        0x0 ..\obj\Vario_CC_board.o
 .text.VarioCC_DelayEnableInterrupts
                0x00000000       0x16 ..\obj\Vario_CC_board.o
 .text.VarioCC_DelayTIMInit
                0x00000000       0x44 ..\obj\Vario_CC_board.o
 .text          0x00000000        0x0 ..\obj\PressureSensor.o
 .text.PressureSense_IsPositive
                0x00000000        0xe ..\obj\PressureSensor.o
 .text          0x00000000        0x0 ..\obj\stm32f0xx_pwr.o
 .data          0x00000000        0x0 ..\obj\stm32f0xx_pwr.o
 .bss           0x00000000        0x0 ..\obj\stm32f0xx_pwr.o
 .text.PWR_DeInit
                0x00000000       0x18 ..\obj\stm32f0xx_pwr.o
 .text.PWR_BackupAccessCmd
                0x00000000       0x24 ..\obj\stm32f0xx_pwr.o
 .text.PWR_PVDLevelConfig
                0x00000000       0x14 ..\obj\stm32f0xx_pwr.o
 .text.PWR_PVDCmd
                0x00000000       0x18 ..\obj\stm32f0xx_pwr.o
 .text.PWR_WakeUpPinCmd
                0x00000000       0x18 ..\obj\stm32f0xx_pwr.o
 .text.PWR_EnterSleepMode
                0x00000000       0x1c ..\obj\stm32f0xx_pwr.o
 .text.PWR_EnterSTOPMode
                0x00000000       0x34 ..\obj\stm32f0xx_pwr.o
 .text.PWR_EnterSTANDBYMode
                0x00000000       0x28 ..\obj\stm32f0xx_pwr.o
 .text.PWR_GetFlagStatus
                0x00000000       0x14 ..\obj\stm32f0xx_pwr.o
 .text.PWR_ClearFlag
                0x00000000       0x10 ..\obj\stm32f0xx_pwr.o
 .debug_info    0x00000000      0x418 ..\obj\stm32f0xx_pwr.o
 .debug_abbrev  0x00000000      0x1b0 ..\obj\stm32f0xx_pwr.o
 .debug_loc     0x00000000      0x17b ..\obj\stm32f0xx_pwr.o
 .debug_aranges
                0x00000000       0x68 ..\obj\stm32f0xx_pwr.o
 .debug_ranges  0x00000000       0x58 ..\obj\stm32f0xx_pwr.o
 .debug_line    0x00000000      0x322 ..\obj\stm32f0xx_pwr.o
 .debug_str     0x00000000      0x32f ..\obj\stm32f0xx_pwr.o
 .comment       0x00000000       0x71 ..\obj\stm32f0xx_pwr.o
 .debug_frame   0x00000000       0xc0 ..\obj\stm32f0xx_pwr.o
 .ARM.attributes
                0x00000000       0x31 ..\obj\stm32f0xx_pwr.o
 .text          0x00000000        0x0 ..\obj\stm32f0xx_misc.o
 .data          0x00000000        0x0 ..\obj\stm32f0xx_misc.o
 .bss           0x00000000        0x0 ..\obj\stm32f0xx_misc.o
 .text.NVIC_SystemLPConfig
                0x00000000       0x18 ..\obj\stm32f0xx_misc.o
 .text.SysTick_CLKSourceConfig
                0x00000000       0x1c ..\obj\stm32f0xx_misc.o
 .text          0x00000000        0x0 ..\obj\Buzzer.o
 .data          0x00000000        0x0 ..\obj\Buzzer.o
 .bss           0x00000000        0x0 ..\obj\Buzzer.o
 .text.BuzzerTimerandChannelReInit
                0x00000000       0x16 ..\obj\Buzzer.o
 .text.PulseChannelInit
                0x00000000       0x34 ..\obj\Buzzer.o
 .data          0x00000000        0x0 c:/program files (x86)/gnu tools arm embedded/4.9 2015q3/bin/../lib/gcc/arm-none-eabi/4.9.3/armv6-m\libgcc.a(_thumb1_case_uqi.o)
 .bss           0x00000000        0x0 c:/program files (x86)/gnu tools arm embedded/4.9 2015q3/bin/../lib/gcc/arm-none-eabi/4.9.3/armv6-m\libgcc.a(_thumb1_case_uqi.o)
 .data          0x00000000        0x0 c:/program files (x86)/gnu tools arm embedded/4.9 2015q3/bin/../lib/gcc/arm-none-eabi/4.9.3/armv6-m\libgcc.a(_udivsi3.o)
 .bss           0x00000000        0x0 c:/program files (x86)/gnu tools arm embedded/4.9 2015q3/bin/../lib/gcc/arm-none-eabi/4.9.3/armv6-m\libgcc.a(_udivsi3.o)
 .data          0x00000000        0x0 c:/program files (x86)/gnu tools arm embedded/4.9 2015q3/bin/../lib/gcc/arm-none-eabi/4.9.3/armv6-m\libgcc.a(_divsi3.o)
 .bss           0x00000000        0x0 c:/program files (x86)/gnu tools arm embedded/4.9 2015q3/bin/../lib/gcc/arm-none-eabi/4.9.3/armv6-m\libgcc.a(_divsi3.o)
 .data          0x00000000        0x0 c:/program files (x86)/gnu tools arm embedded/4.9 2015q3/bin/../lib/gcc/arm-none-eabi/4.9.3/armv6-m\libgcc.a(_dvmd_tls.o)
 .bss           0x00000000        0x0 c:/program files (x86)/gnu tools arm embedded/4.9 2015q3/bin/../lib/gcc/arm-none-eabi/4.9.3/armv6-m\libgcc.a(_dvmd_tls.o)
 .data          0x00000000        0x0 c:/program files (x86)/gnu tools arm embedded/4.9 2015q3/bin/../lib/gcc/arm-none-eabi/4.9.3/armv6-m\libgcc.a(_floatundidf.o)
 .bss           0x00000000        0x0 c:/program files (x86)/gnu tools arm embedded/4.9 2015q3/bin/../lib/gcc/arm-none-eabi/4.9.3/armv6-m\libgcc.a(_floatundidf.o)
 .data          0x00000000        0x0 c:/program files (x86)/gnu tools arm embedded/4.9 2015q3/bin/../lib/gcc/arm-none-eabi/4.9.3/armv6-m\libgcc.a(divsf3.o)
 .bss           0x00000000        0x0 c:/program files (x86)/gnu tools arm embedded/4.9 2015q3/bin/../lib/gcc/arm-none-eabi/4.9.3/armv6-m\libgcc.a(divsf3.o)
 .data          0x00000000        0x0 c:/program files (x86)/gnu tools arm embedded/4.9 2015q3/bin/../lib/gcc/arm-none-eabi/4.9.3/armv6-m\libgcc.a(mulsf3.o)
 .bss           0x00000000        0x0 c:/program files (x86)/gnu tools arm embedded/4.9 2015q3/bin/../lib/gcc/arm-none-eabi/4.9.3/armv6-m\libgcc.a(mulsf3.o)
 .data          0x00000000        0x0 c:/program files (x86)/gnu tools arm embedded/4.9 2015q3/bin/../lib/gcc/arm-none-eabi/4.9.3/armv6-m\libgcc.a(fixsfsi.o)
 .bss           0x00000000        0x0 c:/program files (x86)/gnu tools arm embedded/4.9 2015q3/bin/../lib/gcc/arm-none-eabi/4.9.3/armv6-m\libgcc.a(fixsfsi.o)
 .data          0x00000000        0x0 c:/program files (x86)/gnu tools arm embedded/4.9 2015q3/bin/../lib/gcc/arm-none-eabi/4.9.3/armv6-m\libgcc.a(floatunsisf.o)
 .bss           0x00000000        0x0 c:/program files (x86)/gnu tools arm embedded/4.9 2015q3/bin/../lib/gcc/arm-none-eabi/4.9.3/armv6-m\libgcc.a(floatunsisf.o)
 .data          0x00000000        0x0 c:/program files (x86)/gnu tools arm embedded/4.9 2015q3/bin/../lib/gcc/arm-none-eabi/4.9.3/armv6-m\libgcc.a(adddf3.o)
 .bss           0x00000000        0x0 c:/program files (x86)/gnu tools arm embedded/4.9 2015q3/bin/../lib/gcc/arm-none-eabi/4.9.3/armv6-m\libgcc.a(adddf3.o)
 .data          0x00000000        0x0 c:/program files (x86)/gnu tools arm embedded/4.9 2015q3/bin/../lib/gcc/arm-none-eabi/4.9.3/armv6-m\libgcc.a(divdf3.o)
 .bss           0x00000000        0x0 c:/program files (x86)/gnu tools arm embedded/4.9 2015q3/bin/../lib/gcc/arm-none-eabi/4.9.3/armv6-m\libgcc.a(divdf3.o)
 .data          0x00000000        0x0 c:/program files (x86)/gnu tools arm embedded/4.9 2015q3/bin/../lib/gcc/arm-none-eabi/4.9.3/armv6-m\libgcc.a(muldf3.o)
 .bss           0x00000000        0x0 c:/program files (x86)/gnu tools arm embedded/4.9 2015q3/bin/../lib/gcc/arm-none-eabi/4.9.3/armv6-m\libgcc.a(muldf3.o)
 .data          0x00000000        0x0 c:/program files (x86)/gnu tools arm embedded/4.9 2015q3/bin/../lib/gcc/arm-none-eabi/4.9.3/armv6-m\libgcc.a(subdf3.o)
 .bss           0x00000000        0x0 c:/program files (x86)/gnu tools arm embedded/4.9 2015q3/bin/../lib/gcc/arm-none-eabi/4.9.3/armv6-m\libgcc.a(subdf3.o)
 .data          0x00000000        0x0 c:/program files (x86)/gnu tools arm embedded/4.9 2015q3/bin/../lib/gcc/arm-none-eabi/4.9.3/armv6-m\libgcc.a(floatunsidf.o)
 .bss           0x00000000        0x0 c:/program files (x86)/gnu tools arm embedded/4.9 2015q3/bin/../lib/gcc/arm-none-eabi/4.9.3/armv6-m\libgcc.a(floatunsidf.o)
 .data          0x00000000        0x0 c:/program files (x86)/gnu tools arm embedded/4.9 2015q3/bin/../lib/gcc/arm-none-eabi/4.9.3/armv6-m\libgcc.a(extendsfdf2.o)
 .bss           0x00000000        0x0 c:/program files (x86)/gnu tools arm embedded/4.9 2015q3/bin/../lib/gcc/arm-none-eabi/4.9.3/armv6-m\libgcc.a(extendsfdf2.o)
 .data          0x00000000        0x0 c:/program files (x86)/gnu tools arm embedded/4.9 2015q3/bin/../lib/gcc/arm-none-eabi/4.9.3/armv6-m\libgcc.a(truncdfsf2.o)
 .bss           0x00000000        0x0 c:/program files (x86)/gnu tools arm embedded/4.9 2015q3/bin/../lib/gcc/arm-none-eabi/4.9.3/armv6-m\libgcc.a(truncdfsf2.o)
 .data          0x00000000        0x0 c:/program files (x86)/gnu tools arm embedded/4.9 2015q3/bin/../lib/gcc/arm-none-eabi/4.9.3/armv6-m\libgcc.a(_clzsi2.o)
 .bss           0x00000000        0x0 c:/program files (x86)/gnu tools arm embedded/4.9 2015q3/bin/../lib/gcc/arm-none-eabi/4.9.3/armv6-m\libgcc.a(_clzsi2.o)

Memory Configuration

Name             Origin             Length             Attributes
rom              0x08000000         0x00004000         xr
ram              0x20000000         0x00001000         xrw
*default*        0x00000000         0xffffffff

Linker script and memory map

                0x20001000                _eram = 0x20001000

.text           0x08000000     0x3960
 *(.isr_vector)
 .isr_vector    0x08000000       0xc4 ..\obj\startup_stm32f0xx.o
                0x08000000                g_pfnVectors
 *(.text*)
 .text.BMP180_READ_CALDATA
                0x080000c4       0x94 ..\obj\BMP180_api.o
                0x080000c4                BMP180_READ_CALDATA
 .text.BMP180_READ_UT
                0x08000158       0x48 ..\obj\BMP180_api.o
                0x08000158                BMP180_READ_UT
 .text.BMP180_CALC_TEMP
                0x080001a0       0x30 ..\obj\BMP180_api.o
                0x080001a0                BMP180_CALC_TEMP
 .text.BMP180_READ_UP_START
                0x080001d0       0x3c ..\obj\BMP180_api.o
                0x080001d0                BMP180_READ_UP_START
 .text.BMP180_READ_UP_END
                0x0800020c       0x4c ..\obj\BMP180_api.o
                0x0800020c                BMP180_READ_UP_END
 .text.BMP180_CALC_PRESS
                0x08000258       0xb4 ..\obj\BMP180_api.o
                0x08000258                BMP180_CALC_PRESS
 .text.PowerLed_GPIOInit
                0x0800030c       0x44 ..\obj\PowerLed.o
                0x0800030c                PowerLed_GPIOInit
 .text.PowerLed_ADCADCInit
                0x08000350       0x58 ..\obj\PowerLed.o
                0x08000350                PowerLed_ADCADCInit
 .text.PowerLed_ADCGetRefVoltValue
                0x080003a8       0x24 ..\obj\PowerLed.o
                0x080003a8                PowerLed_ADCGetRefVoltValue
 .text.PowerLed_Init
                0x080003cc       0x18 ..\obj\PowerLed.o
                0x080003cc                PowerLed_Init
 .text.PowerLed_Main
                0x080003e4       0x70 ..\obj\PowerLed.o
                0x080003e4                PowerLed_Main
 .text.RCC_HCLKConfig
                0x08000454       0x14 ..\obj\stm32f0xx_rcc.o
                0x08000454                RCC_HCLKConfig
 .text.RCC_GetClocksFreq
                0x08000468       0xe0 ..\obj\stm32f0xx_rcc.o
                0x08000468                RCC_GetClocksFreq
 .text.RCC_AHBPeriphClockCmd
                0x08000548       0x18 ..\obj\stm32f0xx_rcc.o
                0x08000548                RCC_AHBPeriphClockCmd
 .text.RCC_APB2PeriphClockCmd
                0x08000560       0x18 ..\obj\stm32f0xx_rcc.o
                0x08000560                RCC_APB2PeriphClockCmd
 .text.RCC_APB1PeriphClockCmd
                0x08000578       0x18 ..\obj\stm32f0xx_rcc.o
                0x08000578                RCC_APB1PeriphClockCmd
 .text.ADC_Init
                0x08000590       0x2c ..\obj\stm32f0xx_adc.o
                0x08000590                ADC_Init
 .text.ADC_StructInit
                0x080005bc       0x10 ..\obj\stm32f0xx_adc.o
                0x080005bc                ADC_StructInit
 .text.ADC_Cmd  0x080005cc       0x10 ..\obj\stm32f0xx_adc.o
                0x080005cc                ADC_Cmd
 .text.ADC_AutoPowerOffCmd
                0x080005dc       0x1c ..\obj\stm32f0xx_adc.o
                0x080005dc                ADC_AutoPowerOffCmd
 .text.ADC_ChannelConfig
                0x080005f8        0xa ..\obj\stm32f0xx_adc.o
                0x080005f8                ADC_ChannelConfig
 .text.ADC_GetCalibrationFactor
                0x08000602       0x2c ..\obj\stm32f0xx_adc.o
                0x08000602                ADC_GetCalibrationFactor
 .text.ADC_StartOfConversion
                0x0800062e        0xa ..\obj\stm32f0xx_adc.o
                0x0800062e                ADC_StartOfConversion
 .text.ADC_GetConversionValue
                0x08000638        0x6 ..\obj\stm32f0xx_adc.o
                0x08000638                ADC_GetConversionValue
 *fill*         0x0800063e        0x2 
 .text.ADC_GetFlagStatus
                0x08000640       0x1c ..\obj\stm32f0xx_adc.o
                0x08000640                ADC_GetFlagStatus
 .text.I2CLine_GPIOInit
                0x0800065c       0x44 ..\obj\I2C_extension.o
                0x0800065c                I2CLine_GPIOInit
 .text.I2CLine_I2CInit
                0x080006a0       0x38 ..\obj\I2C_extension.o
                0x080006a0                I2CLine_I2CInit
 .text.I2CLine_Init
                0x080006d8       0x10 ..\obj\I2C_extension.o
                0x080006d8                I2CLine_Init
 .text.I2CLine_Read
                0x080006e8       0x88 ..\obj\I2C_extension.o
                0x080006e8                I2CLine_Read
 .text.I2CLine_Write
                0x08000770       0x6a ..\obj\I2C_extension.o
                0x08000770                I2CLine_Write
 .text.startup.main
                0x080007da       0x36 ..\obj\main.o
                0x080007da                main
 .text.Reset_Handler
                0x08000810       0x4c ..\obj\startup_stm32f0xx.o
                0x08000810                Reset_Handler
 .text.Default_Handler
                0x0800085c        0x2 ..\obj\startup_stm32f0xx.o
                0x0800085c                TIM1_CC_IRQHandler
                0x0800085c                HardFault_Handler
                0x0800085c                ADC1_COMP_IRQHandler
                0x0800085c                SysTick_Handler
                0x0800085c                PVD_IRQHandler
                0x0800085c                PendSV_Handler
                0x0800085c                NMI_Handler
                0x0800085c                I2C1_IRQHandler
                0x0800085c                SPI1_IRQHandler
                0x0800085c                TIM6_DAC_IRQHandler
                0x0800085c                EXTI2_3_IRQHandler
                0x0800085c                I2C2_IRQHandler
                0x0800085c                TIM17_IRQHandler
                0x0800085c                RTC_IRQHandler
                0x0800085c                TIM16_IRQHandler
                0x0800085c                TIM3_IRQHandler
                0x0800085c                EXTI4_15_IRQHandler
                0x0800085c                RCC_IRQHandler
                0x0800085c                DMA1_Channel1_IRQHandler
                0x0800085c                Default_Handler
                0x0800085c                CEC_IRQHandler
                0x0800085c                TIM14_IRQHandler
                0x0800085c                DMA1_Channel4_5_IRQHandler
                0x0800085c                TIM15_IRQHandler
                0x0800085c                EXTI0_1_IRQHandler
                0x0800085c                SPI2_IRQHandler
                0x0800085c                SVC_Handler
                0x0800085c                TS_IRQHandler
                0x0800085c                WWDG_IRQHandler
                0x0800085c                TIM2_IRQHandler
                0x0800085c                DMA1_Channel2_3_IRQHandler
                0x0800085c                USART2_IRQHandler
                0x0800085c                FLASH_IRQHandler
                0x0800085c                USART1_IRQHandler
 .text.SHD_Init
                0x0800085e       0x4c ..\obj\ShutDown.o
                0x0800085e                SHD_Init
 *fill*         0x080008aa        0x2 
 .text.SHD_Main
                0x080008ac       0x68 ..\obj\ShutDown.o
                0x080008ac                SHD_Main
 .text.I2C_Init
                0x08000914       0x64 ..\obj\stm32f0xx_i2c.o
                0x08000914                I2C_Init
 .text.I2C_StructInit
                0x08000978       0x16 ..\obj\stm32f0xx_i2c.o
                0x08000978                I2C_StructInit
 .text.I2C_Cmd  0x0800098e       0x12 ..\obj\stm32f0xx_i2c.o
                0x0800098e                I2C_Cmd
 .text.I2C_TransferHandling
                0x080009a0       0x20 ..\obj\stm32f0xx_i2c.o
                0x080009a0                I2C_TransferHandling
 .text.I2C_SendData
                0x080009c0        0x4 ..\obj\stm32f0xx_i2c.o
                0x080009c0                I2C_SendData
 .text.I2C_ReceiveData
                0x080009c4        0x6 ..\obj\stm32f0xx_i2c.o
                0x080009c4                I2C_ReceiveData
 .text.I2C_GetFlagStatus
                0x080009ca        0xc ..\obj\stm32f0xx_i2c.o
                0x080009ca                I2C_GetFlagStatus
 .text.I2C_ClearFlag
                0x080009d6        0x4 ..\obj\stm32f0xx_i2c.o
                0x080009d6                I2C_ClearFlag
 *fill*         0x080009da        0x2 
 .text.SetSysClock1
                0x080009dc       0xa0 ..\obj\system_stm32f0xx_temp.o
                0x080009dc                SetSysClock
 .text.SystemInit1
                0x08000a7c       0x64 ..\obj\system_stm32f0xx_temp.o
                0x08000a7c                SystemInit
                0x08000a7c                SystemInit1
 .text.GPIO_Init
                0x08000ae0       0x78 ..\obj\stm32f0xx_gpio.o
                0x08000ae0                GPIO_Init
 .text.GPIO_StructInit
                0x08000b58       0x18 ..\obj\stm32f0xx_gpio.o
                0x08000b58                GPIO_StructInit
 .text.GPIO_ReadInputDataBit
                0x08000b70        0xc ..\obj\stm32f0xx_gpio.o
                0x08000b70                GPIO_ReadInputDataBit
 .text.GPIO_SetBits
                0x08000b7c        0x4 ..\obj\stm32f0xx_gpio.o
                0x08000b7c                GPIO_SetBits
 .text.GPIO_ResetBits
                0x08000b80        0x4 ..\obj\stm32f0xx_gpio.o
                0x08000b80                GPIO_ResetBits
 .text.GPIO_PinAFConfig
                0x08000b84       0x24 ..\obj\stm32f0xx_gpio.o
                0x08000b84                GPIO_PinAFConfig
 .text.TIM_TimeBaseInit
                0x08000ba8       0x78 ..\obj\stm32f0xx_tim.o
                0x08000ba8                TIM_TimeBaseInit
 .text.TIM_TimeBaseStructInit
                0x08000c20       0x12 ..\obj\stm32f0xx_tim.o
                0x08000c20                TIM_TimeBaseStructInit
 .text.TIM_Cmd  0x08000c32       0x12 ..\obj\stm32f0xx_tim.o
                0x08000c32                TIM_Cmd
 .text.TIM_OC1Init
                0x08000c44       0x7c ..\obj\stm32f0xx_tim.o
                0x08000c44                TIM_OC1Init
 .text.TIM_OC2Init
                0x08000cc0       0x94 ..\obj\stm32f0xx_tim.o
                0x08000cc0                TIM_OC2Init
 .text.TIM_OCStructInit
                0x08000d54       0x14 ..\obj\stm32f0xx_tim.o
                0x08000d54                TIM_OCStructInit
 .text.TIM_OC1PreloadConfig
                0x08000d68        0xc ..\obj\stm32f0xx_tim.o
                0x08000d68                TIM_OC1PreloadConfig
 .text.TIM_OC2PreloadConfig
                0x08000d74       0x14 ..\obj\stm32f0xx_tim.o
                0x08000d74                TIM_OC2PreloadConfig
 .text.TIM_ITConfig
                0x08000d88       0x12 ..\obj\stm32f0xx_tim.o
                0x08000d88                TIM_ITConfig
 .text.TIM_GetITStatus
                0x08000d9a       0x16 ..\obj\stm32f0xx_tim.o
                0x08000d9a                TIM_GetITStatus
 .text.TIM_ClearITPendingBit
                0x08000db0        0x8 ..\obj\stm32f0xx_tim.o
                0x08000db0                TIM_ClearITPendingBit
 .text.VarioCC_GetTimBusClockFreq
                0x08000db8       0x18 ..\obj\Vario_CC_board.o
                0x08000db8                VarioCC_GetTimBusClockFreq
 .text.VarioCC_Delay
                0x08000dd0       0x14 ..\obj\Vario_CC_board.o
                0x08000dd0                VarioCC_Delay
 .text.VarioCC_NonBlockingDelay_Start
                0x08000de4        0xc ..\obj\Vario_CC_board.o
                0x08000de4                VarioCC_NonBlockingDelay_Start
 .text.PressureSensor_Reset
                0x08000df0       0x14 ..\obj\PressureSensor.o
                0x08000df0                PressureSensor_Reset
 .text.PressureSensor_Init
                0x08000e04       0x28 ..\obj\PressureSensor.o
                0x08000e04                PressureSensor_Init
 .text.PressureSense_BuzzerControl
                0x08000e2c       0x7c ..\obj\PressureSensor.o
                0x08000e2c                PressureSense_BuzzerControl
 .text.PressureSense_InsertData
                0x08000ea8       0x2c ..\obj\PressureSensor.o
                0x08000ea8                PressureSense_InsertData
 .text.PressureSense_CalculateSumXiTYi
                0x08000ed4       0x3c ..\obj\PressureSensor.o
                0x08000ed4                PressureSense_CalculateSumXiTYi
 .text.PressureSense_CalculateAvgYi
                0x08000f10       0x34 ..\obj\PressureSensor.o
                0x08000f10                PressureSense_CalculateAvgYi
 .text.PressureSense_CalculateVelocity
                0x08000f44       0x88 ..\obj\PressureSensor.o
                0x08000f44                PressureSense_CalculateVelocity
 .text.PressureSense_DealWithVelocity
                0x08000fcc       0x7c ..\obj\PressureSensor.o
                0x08000fcc                PressureSense_DealWithVelocity
 .text.PressureSense_DetermineVelocity
                0x08001048       0x70 ..\obj\PressureSensor.o
                0x08001048                PressureSense_DetermineVelocity
 .text.PressureSense_Main
                0x080010b8       0x60 ..\obj\PressureSensor.o
                0x080010b8                PressureSense_Main
 .text.NVIC_Init
                0x08001118       0x60 ..\obj\stm32f0xx_misc.o
                0x08001118                NVIC_Init
 .text.BuzzerGPIOInit
                0x08001178       0x4c ..\obj\Buzzer.o
                0x08001178                BuzzerGPIOInit
 .text.BuzzerTimerInit
                0x080011c4       0x4c ..\obj\Buzzer.o
                0x080011c4                BuzzerTimerInit
 .text.BuzzerChannelInit
                0x08001210       0x5c ..\obj\Buzzer.o
                0x08001210                BuzzerChannelInit
 .text.BuzzerInit
                0x0800126c       0x1a ..\obj\Buzzer.o
                0x0800126c                BuzzerInit
 *fill*         0x08001286        0x2 
 .text.BuzzerEnable
                0x08001288       0x1c ..\obj\Buzzer.o
                0x08001288                BuzzerEnable
 .text.PulseTimerInit
                0x080012a4       0x50 ..\obj\Buzzer.o
                0x080012a4                PulseTimerInit
 .text.PulseTimerEnableInterrupts
                0x080012f4       0x16 ..\obj\Buzzer.o
                0x080012f4                PulseTimerEnableInterrupts
 *fill*         0x0800130a        0x2 
 .text.PulseInit
                0x0800130c       0x30 ..\obj\Buzzer.o
                0x0800130c                PulseInit
 .text.TIM1_BRK_UP_TRG_COM_IRQHandler
                0x0800133c       0x8c ..\obj\Buzzer.o
                0x0800133c                TIM1_BRK_UP_TRG_COM_IRQHandler
 .text          0x080013c8       0x14 c:/program files (x86)/gnu tools arm embedded/4.9 2015q3/bin/../lib/gcc/arm-none-eabi/4.9.3/armv6-m\libgcc.a(_thumb1_case_uqi.o)
                0x080013c8                __gnu_thumb1_case_uqi
 .text          0x080013dc      0x120 c:/program files (x86)/gnu tools arm embedded/4.9 2015q3/bin/../lib/gcc/arm-none-eabi/4.9.3/armv6-m\libgcc.a(_udivsi3.o)
                0x080013dc                __aeabi_uidiv
                0x080013dc                __udivsi3
                0x080014e8                __aeabi_uidivmod
 .text          0x080014fc      0x1e0 c:/program files (x86)/gnu tools arm embedded/4.9 2015q3/bin/../lib/gcc/arm-none-eabi/4.9.3/armv6-m\libgcc.a(_divsi3.o)
                0x080014fc                __divsi3
                0x080014fc                __aeabi_idiv
                0x080016c8                __aeabi_idivmod
 .text          0x080016dc        0x4 c:/program files (x86)/gnu tools arm embedded/4.9 2015q3/bin/../lib/gcc/arm-none-eabi/4.9.3/armv6-m\libgcc.a(_dvmd_tls.o)
                0x080016dc                __aeabi_idiv0
                0x080016dc                __aeabi_ldiv0
 .text          0x080016e0       0x2c c:/program files (x86)/gnu tools arm embedded/4.9 2015q3/bin/../lib/gcc/arm-none-eabi/4.9.3/armv6-m\libgcc.a(_floatundidf.o)
                0x080016e0                __floatundidf
                0x080016e0                __aeabi_ul2d
 .text          0x0800170c      0x270 c:/program files (x86)/gnu tools arm embedded/4.9 2015q3/bin/../lib/gcc/arm-none-eabi/4.9.3/armv6-m\libgcc.a(divsf3.o)
                0x0800170c                __aeabi_fdiv
 .text          0x0800197c      0x264 c:/program files (x86)/gnu tools arm embedded/4.9 2015q3/bin/../lib/gcc/arm-none-eabi/4.9.3/armv6-m\libgcc.a(mulsf3.o)
                0x0800197c                __aeabi_fmul
 .text          0x08001be0       0x40 c:/program files (x86)/gnu tools arm embedded/4.9 2015q3/bin/../lib/gcc/arm-none-eabi/4.9.3/armv6-m\libgcc.a(fixsfsi.o)
                0x08001be0                __aeabi_f2iz
 .text          0x08001c20       0x90 c:/program files (x86)/gnu tools arm embedded/4.9 2015q3/bin/../lib/gcc/arm-none-eabi/4.9.3/armv6-m\libgcc.a(floatunsisf.o)
                0x08001c20                __aeabi_ui2f
 .text          0x08001cb0      0x650 c:/program files (x86)/gnu tools arm embedded/4.9 2015q3/bin/../lib/gcc/arm-none-eabi/4.9.3/armv6-m\libgcc.a(adddf3.o)
                0x08001cb0                __aeabi_dadd
 .text          0x08002300      0x648 c:/program files (x86)/gnu tools arm embedded/4.9 2015q3/bin/../lib/gcc/arm-none-eabi/4.9.3/armv6-m\libgcc.a(divdf3.o)
                0x08002300                __aeabi_ddiv
 .text          0x08002948      0x534 c:/program files (x86)/gnu tools arm embedded/4.9 2015q3/bin/../lib/gcc/arm-none-eabi/4.9.3/armv6-m\libgcc.a(muldf3.o)
                0x08002948                __aeabi_dmul
 .text          0x08002e7c      0x6f4 c:/program files (x86)/gnu tools arm embedded/4.9 2015q3/bin/../lib/gcc/arm-none-eabi/4.9.3/armv6-m\libgcc.a(subdf3.o)
                0x08002e7c                __aeabi_dsub
 .text          0x08003570       0x64 c:/program files (x86)/gnu tools arm embedded/4.9 2015q3/bin/../lib/gcc/arm-none-eabi/4.9.3/armv6-m\libgcc.a(floatunsidf.o)
                0x08003570                __aeabi_ui2d
 .text          0x080035d4       0xa8 c:/program files (x86)/gnu tools arm embedded/4.9 2015q3/bin/../lib/gcc/arm-none-eabi/4.9.3/armv6-m\libgcc.a(extendsfdf2.o)
                0x080035d4                __aeabi_f2d
 .text          0x0800367c      0x120 c:/program files (x86)/gnu tools arm embedded/4.9 2015q3/bin/../lib/gcc/arm-none-eabi/4.9.3/armv6-m\libgcc.a(truncdfsf2.o)
                0x0800367c                __aeabi_d2f
 .text          0x0800379c       0x3c c:/program files (x86)/gnu tools arm embedded/4.9 2015q3/bin/../lib/gcc/arm-none-eabi/4.9.3/armv6-m\libgcc.a(_clzsi2.o)
                0x0800379c                __clzsi2
 *(.init)
 *(.fini)
 *crtbegin.o(.ctors)
 *crtbegin?.o(.ctors)
 *(EXCLUDE_FILE(*crtend.o *crtend?.o) .ctors)
 *(SORT(.ctors.*))
 *(.ctors)
 *crtbegin.o(.dtors)
 *crtbegin?.o(.dtors)
 *(EXCLUDE_FILE(*crtend.o *crtend?.o) .dtors)
 *(SORT(.dtors.*))
 *(.dtors)
 *(.rodata*)
 .rodata        0x080037d8       0x48 ..\obj\PressureSensor.o
 .rodata        0x08003820       0x80 c:/program files (x86)/gnu tools arm embedded/4.9 2015q3/bin/../lib/gcc/arm-none-eabi/4.9.3/armv6-m\libgcc.a(divsf3.o)
 .rodata        0x080038a0       0x40 c:/program files (x86)/gnu tools arm embedded/4.9 2015q3/bin/../lib/gcc/arm-none-eabi/4.9.3/armv6-m\libgcc.a(mulsf3.o)
 .rodata        0x080038e0       0x40 c:/program files (x86)/gnu tools arm embedded/4.9 2015q3/bin/../lib/gcc/arm-none-eabi/4.9.3/armv6-m\libgcc.a(divdf3.o)
 .rodata        0x08003920       0x40 c:/program files (x86)/gnu tools arm embedded/4.9 2015q3/bin/../lib/gcc/arm-none-eabi/4.9.3/armv6-m\libgcc.a(muldf3.o)
 *(.eh_fram e*)

.glue_7         0x08003960        0x0
 .glue_7        0x00000000        0x0 linker stubs

.glue_7t        0x08003960        0x0
 .glue_7t       0x00000000        0x0 linker stubs

.vfp11_veneer   0x08003960        0x0
 .vfp11_veneer  0x00000000        0x0 linker stubs

.v4_bx          0x08003960        0x0
 .v4_bx         0x00000000        0x0 linker stubs

.iplt           0x08003960        0x0
 .iplt          0x00000000        0x0 ..\obj\BMP180_api.o

.rel.dyn        0x08003960        0x0
 .rel.iplt      0x00000000        0x0 ..\obj\BMP180_api.o

.ARM.extab
 *(.ARM.extab* .gnu.linkonce.armextab.*)
                0x08003960                __exidx_start = .

.ARM.exidx
 *(.ARM.exidx* .gnu.linkonce.armexidx.*)
                0x08003960                __exidx_end = .
                0x08003960                __etext = .
                0x08003960                _sidata = __etext

.data           0x20000000       0x5c load address 0x08003960
                0x20000000                __data_start__ = .
                0x20000000                _sdata = __data_start__
 *(vtable)
 *(.data*)
 .data          0x20000000       0x10 ..\obj\stm32f0xx_rcc.o
 .data          0x20000010        0x8 ..\obj\ShutDown.o
 .data          0x20000018       0x44 ..\obj\PressureSensor.o
                0x2000005c                . = ALIGN (0x4)
                0x2000005c                PROVIDE (__preinit_array_start, .)
 *(.preinit_array)
                0x2000005c                PROVIDE (__preinit_array_end, .)
                0x2000005c                . = ALIGN (0x4)
                0x2000005c                PROVIDE (__init_array_start, .)
 *(SORT(.init_array.*))
 *(.init_array)
                0x2000005c                PROVIDE (__init_array_end, .)
                0x2000005c                . = ALIGN (0x4)
                0x2000005c                PROVIDE (__fini_array_start, .)
 *(SORT(.fini_array.*))
 *(.fini_array)
                0x2000005c                PROVIDE (__fini_array_end, .)
 *(.jcr*)
                0x2000005c                . = ALIGN (0x4)
                0x2000005c                __data_end__ = .
                0x2000005c                _edata = __data_end__

.igot.plt       0x2000005c        0x0 load address 0x080039bc
 .igot.plt      0x00000000        0x0 ..\obj\BMP180_api.o

.bss            0x2000005c      0x854 load address 0x080039bc
                0x2000005c                . = ALIGN (0x4)
                0x2000005c                __bss_start__ = .
                0x2000005c                _sbss = __bss_start__
 *(.bss*)
 .bss           0x2000005c        0x1 ..\obj\PowerLed.o
 .bss           0x2000005d        0x1 ..\obj\ShutDown.o
 *fill*         0x2000005e        0x2 
 .bss           0x20000060        0xc ..\obj\PressureSensor.o
 *(COMMON)
 COMMON         0x2000006c       0x2c ..\obj\BMP180_api.o
                0x2000006c                BMP180_CTRLREGS
                0x20000074                BMP180_CALREGS
                0x20000090                doesitsleep
                0x20000094                intcounter
 COMMON         0x20000098        0x4 ..\obj\PowerLed.o
                0x20000098                adcconvcounter
 COMMON         0x2000009c      0x814 ..\obj\main.o
                0x2000009c                VELOCITYFAST
                0x200001c8                VELOCITYSLOW
                0x200002f4                VELOCITYVERYFAST
                0x20000420                intbuzzenable
                0x20000422                VELOCITYVERYSLOW
                0x2000054e                VELOCITYNORMAL
                0x2000067a                intbuzzthreshold
                0x2000067c                pressens_pressarray
                0x200008ac                intbuzzcounter
                0x200008b0                . = ALIGN (0x4)
                0x200008b0                __bss_end__ = .
                0x200008b0                _ebss = __bss_end__

.heap           0x200008b0        0x0
                0x200008b0                __end__ = .
                0x200008b0                _end = __end__
                0x200008b0                end = __end__
 *(.heap*)
                0x200008b0                __HeapLimit = .

.co_stack       0x200008b0        0x0
                0x200008b0                . = ALIGN (0x8)
 *(.co_stack .co_stack.*)
                0x20001000                __StackTop = (ORIGIN (ram) + 0x1000)
                0x20001000                __StackLimit = (__StackTop - SIZEOF (.co_stack))
                0x20001000                PROVIDE (__stack, __StackTop)
                0x00000001                ASSERT ((__StackLimit >= __HeapLimit), region ram  overflowed with stack)
LOAD ..\obj\BMP180_api.o
LOAD ..\obj\PowerLed.o
LOAD ..\obj\stm32f0xx_rcc.o
LOAD ..\obj\stm32f0xx_adc.o
LOAD ..\obj\I2C_extension.o
LOAD ..\obj\main.o
LOAD ..\obj\startup_stm32f0xx.o
LOAD ..\obj\ShutDown.o
LOAD ..\obj\stm32f0xx_i2c.o
LOAD ..\obj\system_stm32f0xx_temp.o
LOAD ..\obj\stm32f0xx_gpio.o
LOAD ..\obj\stm32f0xx_tim.o
LOAD ..\obj\Vario_CC_board.o
LOAD ..\obj\PressureSensor.o
LOAD ..\obj\stm32f0xx_pwr.o
LOAD ..\obj\stm32f0xx_misc.o
LOAD ..\obj\Buzzer.o
START GROUP
LOAD c:/program files (x86)/gnu tools arm embedded/4.9 2015q3/bin/../lib/gcc/arm-none-eabi/4.9.3/armv6-m\libgcc.a
LOAD c:/program files (x86)/gnu tools arm embedded/4.9 2015q3/bin/../lib/gcc/arm-none-eabi/4.9.3/../../../../arm-none-eabi/lib/armv6-m\libg.a
LOAD c:/program files (x86)/gnu tools arm embedded/4.9 2015q3/bin/../lib/gcc/arm-none-eabi/4.9.3/../../../../arm-none-eabi/lib/armv6-m\libc.a
END GROUP
OUTPUT(Vario_RC_Source.elf elf32-littlearm)

.debug_info     0x00000000     0x91bd
 .debug_info    0x00000000      0x5f5 ..\obj\BMP180_api.o
 .debug_info    0x000005f5      0xbb9 ..\obj\PowerLed.o
 .debug_info    0x000011ae      0x9f6 ..\obj\stm32f0xx_rcc.o
 .debug_info    0x00001ba4      0x8cc ..\obj\stm32f0xx_adc.o
 .debug_info    0x00002470      0x927 ..\obj\I2C_extension.o
 .debug_info    0x00002d97      0x456 ..\obj\main.o
 .debug_info    0x000031ed       0xb9 ..\obj\startup_stm32f0xx.o
 .debug_info    0x000032a6      0x4bb ..\obj\ShutDown.o
 .debug_info    0x00003761      0xbf3 ..\obj\stm32f0xx_i2c.o
 .debug_info    0x00004354      0x2fd ..\obj\system_stm32f0xx_temp.o
 .debug_info    0x00004651      0x686 ..\obj\stm32f0xx_gpio.o
 .debug_info    0x00004cd7     0x200c ..\obj\stm32f0xx_tim.o
 .debug_info    0x00006ce3      0x687 ..\obj\Vario_CC_board.o
 .debug_info    0x0000736a      0xb0b ..\obj\PressureSensor.o
 .debug_info    0x00007e75      0x36b ..\obj\stm32f0xx_misc.o
 .debug_info    0x000081e0      0xfdd ..\obj\Buzzer.o

.debug_abbrev   0x00000000     0x1c9f
 .debug_abbrev  0x00000000      0x203 ..\obj\BMP180_api.o
 .debug_abbrev  0x00000203      0x223 ..\obj\PowerLed.o
 .debug_abbrev  0x00000426      0x22e ..\obj\stm32f0xx_rcc.o
 .debug_abbrev  0x00000654      0x1b0 ..\obj\stm32f0xx_adc.o
 .debug_abbrev  0x00000804      0x1c5 ..\obj\I2C_extension.o
 .debug_abbrev  0x000009c9      0x141 ..\obj\main.o
 .debug_abbrev  0x00000b0a       0x12 ..\obj\startup_stm32f0xx.o
 .debug_abbrev  0x00000b1c      0x16a ..\obj\ShutDown.o
 .debug_abbrev  0x00000c86      0x1ad ..\obj\stm32f0xx_i2c.o
 .debug_abbrev  0x00000e33      0x13f ..\obj\system_stm32f0xx_temp.o
 .debug_abbrev  0x00000f72      0x1d2 ..\obj\stm32f0xx_gpio.o
 .debug_abbrev  0x00001144      0x29c ..\obj\stm32f0xx_tim.o
 .debug_abbrev  0x000013e0      0x1b3 ..\obj\Vario_CC_board.o
 .debug_abbrev  0x00001593      0x392 ..\obj\PressureSensor.o
 .debug_abbrev  0x00001925      0x152 ..\obj\stm32f0xx_misc.o
 .debug_abbrev  0x00001a77      0x228 ..\obj\Buzzer.o

.debug_loc      0x00000000     0x3bf4
 .debug_loc     0x00000000      0x2a0 ..\obj\BMP180_api.o
 .debug_loc     0x000002a0       0x47 ..\obj\PowerLed.o
 .debug_loc     0x000002e7      0x812 ..\obj\stm32f0xx_rcc.o
 .debug_loc     0x00000af9      0x3e5 ..\obj\stm32f0xx_adc.o
 .debug_loc     0x00000ede      0x1c1 ..\obj\I2C_extension.o
 .debug_loc     0x0000109f      0x5f1 ..\obj\stm32f0xx_i2c.o
 .debug_loc     0x00001690       0xe7 ..\obj\system_stm32f0xx_temp.o
 .debug_loc     0x00001777      0x311 ..\obj\stm32f0xx_gpio.o
 .debug_loc     0x00001a88     0x1a97 ..\obj\stm32f0xx_tim.o
 .debug_loc     0x0000351f      0x498 ..\obj\PressureSensor.o
 .debug_loc     0x000039b7       0xb9 ..\obj\stm32f0xx_misc.o
 .debug_loc     0x00003a70      0x184 ..\obj\Buzzer.o

.debug_aranges  0x00000000      0x9f0
 .debug_aranges
                0x00000000       0x48 ..\obj\BMP180_api.o
 .debug_aranges
                0x00000048       0x50 ..\obj\PowerLed.o
 .debug_aranges
                0x00000098      0x150 ..\obj\stm32f0xx_rcc.o
 .debug_aranges
                0x000001e8      0x100 ..\obj\stm32f0xx_adc.o
 .debug_aranges
                0x000002e8       0x40 ..\obj\I2C_extension.o
 .debug_aranges
                0x00000328       0x20 ..\obj\main.o
 .debug_aranges
                0x00000348       0x28 ..\obj\startup_stm32f0xx.o
 .debug_aranges
                0x00000370       0x28 ..\obj\ShutDown.o
 .debug_aranges
                0x00000398      0x168 ..\obj\stm32f0xx_i2c.o
 .debug_aranges
                0x00000500       0x30 ..\obj\system_stm32f0xx_temp.o
 .debug_aranges
                0x00000530       0x80 ..\obj\stm32f0xx_gpio.o
 .debug_aranges
                0x000005b0      0x2f0 ..\obj\stm32f0xx_tim.o
 .debug_aranges
                0x000008a0       0x40 ..\obj\Vario_CC_board.o
 .debug_aranges
                0x000008e0       0x70 ..\obj\PressureSensor.o
 .debug_aranges
                0x00000950       0x30 ..\obj\stm32f0xx_misc.o
 .debug_aranges
                0x00000980       0x70 ..\obj\Buzzer.o

.debug_ranges   0x00000000      0x960
 .debug_ranges  0x00000000       0x38 ..\obj\BMP180_api.o
 .debug_ranges  0x00000038       0x40 ..\obj\PowerLed.o
 .debug_ranges  0x00000078      0x140 ..\obj\stm32f0xx_rcc.o
 .debug_ranges  0x000001b8       0xf0 ..\obj\stm32f0xx_adc.o
 .debug_ranges  0x000002a8       0x30 ..\obj\I2C_extension.o
 .debug_ranges  0x000002d8       0x10 ..\obj\main.o
 .debug_ranges  0x000002e8       0x20 ..\obj\startup_stm32f0xx.o
 .debug_ranges  0x00000308       0x18 ..\obj\ShutDown.o
 .debug_ranges  0x00000320      0x158 ..\obj\stm32f0xx_i2c.o
 .debug_ranges  0x00000478       0x20 ..\obj\system_stm32f0xx_temp.o
 .debug_ranges  0x00000498       0x70 ..\obj\stm32f0xx_gpio.o
 .debug_ranges  0x00000508      0x330 ..\obj\stm32f0xx_tim.o
 .debug_ranges  0x00000838       0x30 ..\obj\Vario_CC_board.o
 .debug_ranges  0x00000868       0x78 ..\obj\PressureSensor.o
 .debug_ranges  0x000008e0       0x20 ..\obj\stm32f0xx_misc.o
 .debug_ranges  0x00000900       0x60 ..\obj\Buzzer.o

.debug_line     0x00000000     0x397e
 .debug_line    0x00000000      0x2cd ..\obj\BMP180_api.o
 .debug_line    0x000002cd      0x2e9 ..\obj\PowerLed.o
 .debug_line    0x000005b6      0x59f ..\obj\stm32f0xx_rcc.o
 .debug_line    0x00000b55      0x471 ..\obj\stm32f0xx_adc.o
 .debug_line    0x00000fc6      0x29f ..\obj\I2C_extension.o
 .debug_line    0x00001265      0x26d ..\obj\main.o
 .debug_line    0x000014d2       0xb2 ..\obj\startup_stm32f0xx.o
 .debug_line    0x00001584      0x22a ..\obj\ShutDown.o
 .debug_line    0x000017ae      0x59c ..\obj\stm32f0xx_i2c.o
 .debug_line    0x00001d4a      0x1d9 ..\obj\system_stm32f0xx_temp.o
 .debug_line    0x00001f23      0x31c ..\obj\stm32f0xx_gpio.o
 .debug_line    0x0000223f      0xb6e ..\obj\stm32f0xx_tim.o
 .debug_line    0x00002dad      0x26f ..\obj\Vario_CC_board.o
 .debug_line    0x0000301c      0x39a ..\obj\PressureSensor.o
 .debug_line    0x000033b6      0x250 ..\obj\stm32f0xx_misc.o
 .debug_line    0x00003606      0x378 ..\obj\Buzzer.o

.debug_str      0x00000000     0x2a61
 .debug_str     0x00000000      0x2b1 ..\obj\BMP180_api.o
                                0x30c (size before relaxing)
 .debug_str     0x000002b1      0x5ee ..\obj\PowerLed.o
                                0x76b (size before relaxing)
 .debug_str     0x0000089f      0x553 ..\obj\stm32f0xx_rcc.o
                                0x733 (size before relaxing)
 .debug_str     0x00000df2      0x2ae ..\obj\stm32f0xx_adc.o
                                0x5b7 (size before relaxing)
 .debug_str     0x000010a0      0x1a1 ..\obj\I2C_extension.o
                                0x55d (size before relaxing)
 .debug_str     0x00001241      0x12e ..\obj\main.o
                                0x350 (size before relaxing)
 .debug_str     0x0000136f       0x89 ..\obj\ShutDown.o
                                0x3f3 (size before relaxing)
 .debug_str     0x000013f8      0x363 ..\obj\stm32f0xx_i2c.o
                                0x64e (size before relaxing)
 .debug_str     0x0000175b       0xb1 ..\obj\system_stm32f0xx_temp.o
                                0x299 (size before relaxing)
 .debug_str     0x0000180c      0x135 ..\obj\stm32f0xx_gpio.o
                                0x4af (size before relaxing)
 .debug_str     0x00001941      0xa72 ..\obj\stm32f0xx_tim.o
                                0xe09 (size before relaxing)
 .debug_str     0x000023b3      0x253 ..\obj\Vario_CC_board.o
                                0x663 (size before relaxing)
 .debug_str     0x00002606      0x251 ..\obj\PressureSensor.o
                                0x5e1 (size before relaxing)
 .debug_str     0x00002857      0x10f ..\obj\stm32f0xx_misc.o
                                0x2f3 (size before relaxing)
 .debug_str     0x00002966       0xfb ..\obj\Buzzer.o
                                0xa37 (size before relaxing)

.comment        0x00000000       0x70
 .comment       0x00000000       0x70 ..\obj\BMP180_api.o
                                 0x71 (size before relaxing)
 .comment       0x00000000       0x71 ..\obj\PowerLed.o
 .comment       0x00000000       0x71 ..\obj\stm32f0xx_rcc.o
 .comment       0x00000000       0x71 ..\obj\stm32f0xx_adc.o
 .comment       0x00000000       0x71 ..\obj\I2C_extension.o
 .comment       0x00000000       0x71 ..\obj\main.o
 .comment       0x00000000       0x71 ..\obj\ShutDown.o
 .comment       0x00000000       0x71 ..\obj\stm32f0xx_i2c.o
 .comment       0x00000000       0x71 ..\obj\system_stm32f0xx_temp.o
 .comment       0x00000000       0x71 ..\obj\stm32f0xx_gpio.o
 .comment       0x00000000       0x71 ..\obj\stm32f0xx_tim.o
 .comment       0x00000000       0x71 ..\obj\Vario_CC_board.o
 .comment       0x00000000       0x71 ..\obj\PressureSensor.o
 .comment       0x00000000       0x71 ..\obj\stm32f0xx_misc.o
 .comment       0x00000000       0x71 ..\obj\Buzzer.o

.ARM.attributes
                0x00000000       0x2f
 .ARM.attributes
                0x00000000       0x31 ..\obj\BMP180_api.o
 .ARM.attributes
                0x00000031       0x31 ..\obj\PowerLed.o
 .ARM.attributes
                0x00000062       0x31 ..\obj\stm32f0xx_rcc.o
 .ARM.attributes
                0x00000093       0x31 ..\obj\stm32f0xx_adc.o
 .ARM.attributes
                0x000000c4       0x31 ..\obj\I2C_extension.o
 .ARM.attributes
                0x000000f5       0x31 ..\obj\main.o
 .ARM.attributes
                0x00000126       0x21 ..\obj\startup_stm32f0xx.o
 .ARM.attributes
                0x00000147       0x31 ..\obj\ShutDown.o
 .ARM.attributes
                0x00000178       0x31 ..\obj\stm32f0xx_i2c.o
 .ARM.attributes
                0x000001a9       0x31 ..\obj\system_stm32f0xx_temp.o
 .ARM.attributes
                0x000001da       0x31 ..\obj\stm32f0xx_gpio.o
 .ARM.attributes
                0x0000020b       0x31 ..\obj\stm32f0xx_tim.o
 .ARM.attributes
                0x0000023c       0x31 ..\obj\Vario_CC_board.o
 .ARM.attributes
                0x0000026d       0x31 ..\obj\PressureSensor.o
 .ARM.attributes
                0x0000029e       0x31 ..\obj\stm32f0xx_misc.o
 .ARM.attributes
                0x000002cf       0x31 ..\obj\Buzzer.o
 .ARM.attributes
                0x00000300       0x1e c:/program files (x86)/gnu tools arm embedded/4.9 2015q3/bin/../lib/gcc/arm-none-eabi/4.9.3/armv6-m\libgcc.a(_thumb1_case_uqi.o)
 .ARM.attributes
                0x0000031e       0x1e c:/program files (x86)/gnu tools arm embedded/4.9 2015q3/bin/../lib/gcc/arm-none-eabi/4.9.3/armv6-m\libgcc.a(_udivsi3.o)
 .ARM.attributes
                0x0000033c       0x1e c:/program files (x86)/gnu tools arm embedded/4.9 2015q3/bin/../lib/gcc/arm-none-eabi/4.9.3/armv6-m\libgcc.a(_divsi3.o)
 .ARM.attributes
                0x0000035a       0x1e c:/program files (x86)/gnu tools arm embedded/4.9 2015q3/bin/../lib/gcc/arm-none-eabi/4.9.3/armv6-m\libgcc.a(_dvmd_tls.o)
 .ARM.attributes
                0x00000378       0x2c c:/program files (x86)/gnu tools arm embedded/4.9 2015q3/bin/../lib/gcc/arm-none-eabi/4.9.3/armv6-m\libgcc.a(_floatundidf.o)
 .ARM.attributes
                0x000003a4       0x2c c:/program files (x86)/gnu tools arm embedded/4.9 2015q3/bin/../lib/gcc/arm-none-eabi/4.9.3/armv6-m\libgcc.a(divsf3.o)
 .ARM.attributes
                0x000003d0       0x2c c:/program files (x86)/gnu tools arm embedded/4.9 2015q3/bin/../lib/gcc/arm-none-eabi/4.9.3/armv6-m\libgcc.a(mulsf3.o)
 .ARM.attributes
                0x000003fc       0x2c c:/program files (x86)/gnu tools arm embedded/4.9 2015q3/bin/../lib/gcc/arm-none-eabi/4.9.3/armv6-m\libgcc.a(fixsfsi.o)
 .ARM.attributes
                0x00000428       0x2c c:/program files (x86)/gnu tools arm embedded/4.9 2015q3/bin/../lib/gcc/arm-none-eabi/4.9.3/armv6-m\libgcc.a(floatunsisf.o)
 .ARM.attributes
                0x00000454       0x2c c:/program files (x86)/gnu tools arm embedded/4.9 2015q3/bin/../lib/gcc/arm-none-eabi/4.9.3/armv6-m\libgcc.a(adddf3.o)
 .ARM.attributes
                0x00000480       0x2c c:/program files (x86)/gnu tools arm embedded/4.9 2015q3/bin/../lib/gcc/arm-none-eabi/4.9.3/armv6-m\libgcc.a(divdf3.o)
 .ARM.attributes
                0x000004ac       0x2c c:/program files (x86)/gnu tools arm embedded/4.9 2015q3/bin/../lib/gcc/arm-none-eabi/4.9.3/armv6-m\libgcc.a(muldf3.o)
 .ARM.attributes
                0x000004d8       0x2c c:/program files (x86)/gnu tools arm embedded/4.9 2015q3/bin/../lib/gcc/arm-none-eabi/4.9.3/armv6-m\libgcc.a(subdf3.o)
 .ARM.attributes
                0x00000504       0x2c c:/program files (x86)/gnu tools arm embedded/4.9 2015q3/bin/../lib/gcc/arm-none-eabi/4.9.3/armv6-m\libgcc.a(floatunsidf.o)
 .ARM.attributes
                0x00000530       0x2c c:/program files (x86)/gnu tools arm embedded/4.9 2015q3/bin/../lib/gcc/arm-none-eabi/4.9.3/armv6-m\libgcc.a(extendsfdf2.o)
 .ARM.attributes
                0x0000055c       0x2c c:/program files (x86)/gnu tools arm embedded/4.9 2015q3/bin/../lib/gcc/arm-none-eabi/4.9.3/armv6-m\libgcc.a(truncdfsf2.o)
 .ARM.attributes
                0x00000588       0x1e c:/program files (x86)/gnu tools arm embedded/4.9 2015q3/bin/../lib/gcc/arm-none-eabi/4.9.3/armv6-m\libgcc.a(_clzsi2.o)

.debug_frame    0x00000000     0x17f8
 .debug_frame   0x00000000       0xbc ..\obj\BMP180_api.o
 .debug_frame   0x000000bc       0xc4 ..\obj\PowerLed.o
 .debug_frame   0x00000180      0x2a8 ..\obj\stm32f0xx_rcc.o
 .debug_frame   0x00000428      0x1f0 ..\obj\stm32f0xx_adc.o
 .debug_frame   0x00000618       0xa4 ..\obj\I2C_extension.o
 .debug_frame   0x000006bc       0x28 ..\obj\main.o
 .debug_frame   0x000006e4       0x48 ..\obj\ShutDown.o
 .debug_frame   0x0000072c      0x2dc ..\obj\stm32f0xx_i2c.o
 .debug_frame   0x00000a08       0x58 ..\obj\system_stm32f0xx_temp.o
 .debug_frame   0x00000a60      0x108 ..\obj\stm32f0xx_gpio.o
 .debug_frame   0x00000b68      0x694 ..\obj\stm32f0xx_tim.o
 .debug_frame   0x000011fc       0x88 ..\obj\Vario_CC_board.o
 .debug_frame   0x00001284      0x148 ..\obj\PressureSensor.o
 .debug_frame   0x000013cc       0x4c ..\obj\stm32f0xx_misc.o
 .debug_frame   0x00001418      0x148 ..\obj\Buzzer.o
 .debug_frame   0x00001560       0x20 c:/program files (x86)/gnu tools arm embedded/4.9 2015q3/bin/../lib/gcc/arm-none-eabi/4.9.3/armv6-m\libgcc.a(_udivsi3.o)
 .debug_frame   0x00001580       0x20 c:/program files (x86)/gnu tools arm embedded/4.9 2015q3/bin/../lib/gcc/arm-none-eabi/4.9.3/armv6-m\libgcc.a(_divsi3.o)
 .debug_frame   0x000015a0       0x2c c:/program files (x86)/gnu tools arm embedded/4.9 2015q3/bin/../lib/gcc/arm-none-eabi/4.9.3/armv6-m\libgcc.a(_floatundidf.o)
 .debug_frame   0x000015cc       0x3c c:/program files (x86)/gnu tools arm embedded/4.9 2015q3/bin/../lib/gcc/arm-none-eabi/4.9.3/armv6-m\libgcc.a(divsf3.o)
 .debug_frame   0x00001608       0x3c c:/program files (x86)/gnu tools arm embedded/4.9 2015q3/bin/../lib/gcc/arm-none-eabi/4.9.3/armv6-m\libgcc.a(mulsf3.o)
 .debug_frame   0x00001644       0x20 c:/program files (x86)/gnu tools arm embedded/4.9 2015q3/bin/../lib/gcc/arm-none-eabi/4.9.3/armv6-m\libgcc.a(fixsfsi.o)
 .debug_frame   0x00001664       0x28 c:/program files (x86)/gnu tools arm embedded/4.9 2015q3/bin/../lib/gcc/arm-none-eabi/4.9.3/armv6-m\libgcc.a(floatunsisf.o)
 .debug_frame   0x0000168c       0x38 c:/program files (x86)/gnu tools arm embedded/4.9 2015q3/bin/../lib/gcc/arm-none-eabi/4.9.3/armv6-m\libgcc.a(adddf3.o)
 .debug_frame   0x000016c4       0x3c c:/program files (x86)/gnu tools arm embedded/4.9 2015q3/bin/../lib/gcc/arm-none-eabi/4.9.3/armv6-m\libgcc.a(divdf3.o)
 .debug_frame   0x00001700       0x3c c:/program files (x86)/gnu tools arm embedded/4.9 2015q3/bin/../lib/gcc/arm-none-eabi/4.9.3/armv6-m\libgcc.a(muldf3.o)
 .debug_frame   0x0000173c       0x3c c:/program files (x86)/gnu tools arm embedded/4.9 2015q3/bin/../lib/gcc/arm-none-eabi/4.9.3/armv6-m\libgcc.a(subdf3.o)
 .debug_frame   0x00001778       0x28 c:/program files (x86)/gnu tools arm embedded/4.9 2015q3/bin/../lib/gcc/arm-none-eabi/4.9.3/armv6-m\libgcc.a(floatunsidf.o)
 .debug_frame   0x000017a0       0x2c c:/program files (x86)/gnu tools arm embedded/4.9 2015q3/bin/../lib/gcc/arm-none-eabi/4.9.3/armv6-m\libgcc.a(extendsfdf2.o)
 .debug_frame   0x000017cc       0x2c c:/program files (x86)/gnu tools arm embedded/4.9 2015q3/bin/../lib/gcc/arm-none-eabi/4.9.3/armv6-m\libgcc.a(truncdfsf2.o)
